; Function Attrs: mustprogress uwtable
define void @_ZN9grpc_core11RetryFilter14LegacyCallData4InitEP17grpc_call_elementPK22grpc_call_element_args(ptr noalias nocapture writeonly sret(%"class.absl::lts_20230802::Status") align 8 %agg.result, ptr nocapture noundef readonly %elem, ptr noundef %args) local_unnamed_addr #3 align 2 personality ptr @__gxx_personality_v0 {
entry:
  %channel_data = getelementptr inbounds i8, ptr %elem, i64 8
  %0 = load ptr, ptr %channel_data, align 8
  %call_data = getelementptr inbounds i8, ptr %elem, i64 16
  %1 = load ptr, ptr %call_data, align 8
  tail call void @_ZN9grpc_core11RetryFilter14LegacyCallDataC1EPS0_RK22grpc_call_element_args(ptr noundef nonnull align 8 dereferenceable(1848) %1, ptr noundef %0, ptr noundef nonnull align 8 dereferenceable(64) %args)
  %2 = load atomic i8, ptr getelementptr inbounds (%"class.grpc_core::TraceFlag", ptr @grpc_retry_trace, i64 0, i32 2, i32 0, i32 0) monotonic, align 8
  %3 = and i8 %2, 1
  %tobool.i.i.i.not = icmp eq i8 %3, 0
  br i1 %tobool.i.i.i.not, label %if.end, label %if.then

if.then:                                          ; preds = %entry
  %4 = load ptr, ptr %call_data, align 8
  tail call void (ptr, i32, i32, ptr, ...) @gpr_log(ptr noundef nonnull @.str.1, i32 noundef 1503, i32 noundef 1, ptr noundef nonnull @.str.72, ptr noundef %0, ptr noundef %4)
  br label %if.end

if.end:                                           ; preds = %if.then, %entry
  store i64 0, ptr %agg.result, align 8, !alias.scope !115
  ret void
}